target datalayout = "e-m:e-p270:32:32-p271:32:32-p272:64:64-i64:64-i128:128-f80:128-n8:16:32:64-S128"
target triple = "x86_64-pc-linux-gnu"

%struct.vtx_data = type { i64, ptr, ptr, ptr, ptr }

@stderr = external global ptr, align 8
@.str.14 = private unnamed_addr constant [58 x i8] c"integer overflow when trying to allocate %zu * %zu bytes\0A\00", align 1
@.str.15 = private unnamed_addr constant [49 x i8] c"out of memory when trying to allocate %zu bytes\0A\00", align 1

; Function Attrs: inlinehint nounwind uwtable
define internal ptr @gv_calloc(i64 noundef %0, i64 noundef %1) #4 {
  %3 = alloca i64, align 8
  %4 = alloca i64, align 8
  %5 = alloca ptr, align 8
  store i64 %0, ptr %3, align 8, !tbaa !48
  store i64 %1, ptr %4, align 8, !tbaa !48
  %6 = load i64, ptr %3, align 8, !tbaa !48
  %7 = icmp ugt i64 %6, 0
  br i1 %7, label %8, label %18

8:                                                ; preds = %2
  %9 = load i64, ptr %3, align 8, !tbaa !48
  %10 = udiv i64 -1, %9
  %11 = load i64, ptr %4, align 8, !tbaa !48
  %12 = icmp ult i64 %10, %11
  br i1 %12, label %13, label %18

13:                                               ; preds = %8
  %14 = load ptr, ptr @stderr, align 8, !tbaa !59
  %15 = load i64, ptr %3, align 8, !tbaa !48
  %16 = load i64, ptr %4, align 8, !tbaa !48
  %17 = call i32 (ptr, ptr, ...) @fprintf(ptr noundef %14, ptr noundef @.str.14, i64 noundef %15, i64 noundef %16) #10
  call void @graphviz_exit(i32 noundef 1) #11
  unreachable

18:                                               ; preds = %8, %2
  call void @llvm.lifetime.start.p0(i64 8, ptr %5) #10
  %19 = load i64, ptr %3, align 8, !tbaa !48
  %20 = load i64, ptr %4, align 8, !tbaa !48
  %21 = call noalias ptr @calloc(i64 noundef %19, i64 noundef %20) #12
  store ptr %21, ptr %5, align 8, !tbaa !42
  %22 = load i64, ptr %3, align 8, !tbaa !48
  %23 = icmp ugt i64 %22, 0
  br i1 %23, label %24, label %36

24:                                               ; preds = %18
  %25 = load i64, ptr %4, align 8, !tbaa !48
  %26 = icmp ugt i64 %25, 0
  br i1 %26, label %27, label %36

27:                                               ; preds = %24
  %28 = load ptr, ptr %5, align 8, !tbaa !42
  %29 = icmp eq ptr %28, null
  br i1 %29, label %30, label %36

30:                                               ; preds = %27
  %31 = load ptr, ptr @stderr, align 8, !tbaa !59
  %32 = load i64, ptr %3, align 8, !tbaa !48
  %33 = load i64, ptr %4, align 8, !tbaa !48
  %34 = mul i64 %32, %33
  %35 = call i32 (ptr, ptr, ...) @fprintf(ptr noundef %31, ptr noundef @.str.15, i64 noundef %34) #10
  call void @graphviz_exit(i32 noundef 1) #11
  unreachable

36:                                               ; preds = %27, %24, %18
  %37 = load ptr, ptr %5, align 8, !tbaa !42
  call void @llvm.lifetime.end.p0(i64 8, ptr %5) #10
  ret ptr %37
}

; Function Attrs: nounwind uwtable
define ptr @circuitModel(ptr noundef %0, i32 noundef %1) #0 {
  %3 = alloca ptr, align 8
  %4 = alloca i32, align 4
  %5 = alloca i32, align 4
  %6 = alloca i32, align 4
  %7 = alloca i32, align 4
  %8 = alloca i32, align 4
  %9 = alloca ptr, align 8
  %10 = alloca ptr, align 8
  %11 = alloca ptr, align 8
  %12 = alloca i64, align 8
  %13 = alloca i64, align 8
  %14 = alloca float, align 4
  store ptr %0, ptr %3, align 8, !tbaa !42
  store i32 %1, ptr %4, align 4, !tbaa !3
  call void @llvm.lifetime.start.p0(i64 4, ptr %5) #10
  call void @llvm.lifetime.start.p0(i64 4, ptr %6) #10
  call void @llvm.lifetime.start.p0(i64 4, ptr %7) #10
  call void @llvm.lifetime.start.p0(i64 4, ptr %8) #10
  call void @llvm.lifetime.start.p0(i64 8, ptr %9) #10
  %15 = load i32, ptr %4, align 4, !tbaa !3
  %16 = load i32, ptr %4, align 4, !tbaa !3
  %17 = add nsw i32 %16, 1
  %18 = mul nsw i32 %15, %17
  %19 = sdiv i32 %18, 2
  %20 = sext i32 %19 to i64
  %21 = call ptr @gv_calloc(i64 noundef %20, i64 noundef 4)
  store ptr %21, ptr %9, align 8, !tbaa !43
  call void @llvm.lifetime.start.p0(i64 8, ptr %10) #10
  call void @llvm.lifetime.start.p0(i64 8, ptr %11) #10
  %22 = load i32, ptr %4, align 4, !tbaa !3
  %23 = load i32, ptr %4, align 4, !tbaa !3
  %24 = call ptr @new_array(i32 noundef %22, i32 noundef %23, double noundef 0.000000e+00)
  store ptr %24, ptr %10, align 8, !tbaa !7
  %25 = load i32, ptr %4, align 4, !tbaa !3
  %26 = load i32, ptr %4, align 4, !tbaa !3
  %27 = call ptr @new_array(i32 noundef %25, i32 noundef %26, double noundef 0.000000e+00)
  store ptr %27, ptr %11, align 8, !tbaa !7
  %28 = load ptr, ptr %3, align 8, !tbaa !42
  %29 = getelementptr inbounds nuw %struct.vtx_data, ptr %28, i32 0, i32 2
  %30 = load ptr, ptr %29, align 8, !tbaa !45
  %31 = icmp ne ptr %30, null
  br i1 %31, label %32, label %93

32:                                               ; preds = %2
  store i32 0, ptr %5, align 4, !tbaa !3
  br label %33

33:                                               ; preds = %89, %32
  %34 = load i32, ptr %5, align 4, !tbaa !3
  %35 = load i32, ptr %4, align 4, !tbaa !3
  %36 = icmp slt i32 %34, %35
  br i1 %36, label %37, label %92

37:                                               ; preds = %33
  call void @llvm.lifetime.start.p0(i64 8, ptr %12) #10
  store i64 1, ptr %12, align 8, !tbaa !48
  br label %38

38:                                               ; preds = %85, %37
  %39 = load i64, ptr %12, align 8, !tbaa !48
  %40 = load ptr, ptr %3, align 8, !tbaa !42
  %41 = load i32, ptr %5, align 4, !tbaa !3
  %42 = sext i32 %41 to i64
  %43 = getelementptr inbounds %struct.vtx_data, ptr %40, i64 %42
  %44 = getelementptr inbounds nuw %struct.vtx_data, ptr %43, i32 0, i32 0
  %45 = load i64, ptr %44, align 8, !tbaa !49
  %46 = icmp ult i64 %39, %45
  br i1 %46, label %48, label %47

47:                                               ; preds = %38
  call void @llvm.lifetime.end.p0(i64 8, ptr %12) #10
  br label %88

48:                                               ; preds = %38
  %49 = load ptr, ptr %3, align 8, !tbaa !42
  %50 = load i32, ptr %5, align 4, !tbaa !3
  %51 = sext i32 %50 to i64
  %52 = getelementptr inbounds %struct.vtx_data, ptr %49, i64 %51
  %53 = getelementptr inbounds nuw %struct.vtx_data, ptr %52, i32 0, i32 1
  %54 = load ptr, ptr %53, align 8, !tbaa !50
  %55 = load i64, ptr %12, align 8, !tbaa !48
  %56 = getelementptr inbounds nuw i32, ptr %54, i64 %55
  %57 = load i32, ptr %56, align 4, !tbaa !3
  store i32 %57, ptr %6, align 4, !tbaa !3
  %58 = load ptr, ptr %3, align 8, !tbaa !42
  %59 = load i32, ptr %5, align 4, !tbaa !3
  %60 = sext i32 %59 to i64
  %61 = getelementptr inbounds %struct.vtx_data, ptr %58, i64 %60
  %62 = getelementptr inbounds nuw %struct.vtx_data, ptr %61, i32 0, i32 2
  %63 = load ptr, ptr %62, align 8, !tbaa !45
  %64 = load i64, ptr %12, align 8, !tbaa !48
  %65 = getelementptr inbounds nuw float, ptr %63, i64 %64
  %66 = load float, ptr %65, align 4, !tbaa !51
  %67 = fpext float %66 to double
  %68 = fdiv double -1.000000e+00, %67
  %69 = load ptr, ptr %10, align 8, !tbaa !7
  %70 = load i32, ptr %6, align 4, !tbaa !3
  %71 = sext i32 %70 to i64
  %72 = getelementptr inbounds ptr, ptr %69, i64 %71
  %73 = load ptr, ptr %72, align 8, !tbaa !12
  %74 = load i32, ptr %5, align 4, !tbaa !3
  %75 = sext i32 %74 to i64
  %76 = getelementptr inbounds double, ptr %73, i64 %75
  store double %68, ptr %76, align 8, !tbaa !36
  %77 = load ptr, ptr %10, align 8, !tbaa !7
  %78 = load i32, ptr %5, align 4, !tbaa !3
  %79 = sext i32 %78 to i64
  %80 = getelementptr inbounds ptr, ptr %77, i64 %79
  %81 = load ptr, ptr %80, align 8, !tbaa !12
  %82 = load i32, ptr %6, align 4, !tbaa !3
  %83 = sext i32 %82 to i64
  %84 = getelementptr inbounds double, ptr %81, i64 %83
  store double %68, ptr %84, align 8, !tbaa !36
  br label %85

85:                                               ; preds = %48
  %86 = load i64, ptr %12, align 8, !tbaa !48
  %87 = add i64 %86, 1
  store i64 %87, ptr %12, align 8, !tbaa !48
  br label %38, !llvm.loop !53

88:                                               ; preds = %47
  br label %89

89:                                               ; preds = %88
  %90 = load i32, ptr %5, align 4, !tbaa !3
  %91 = add nsw i32 %90, 1
  store i32 %91, ptr %5, align 4, !tbaa !3
  br label %33, !llvm.loop !54

92:                                               ; preds = %33
  br label %143

93:                                               ; preds = %2
  store i32 0, ptr %5, align 4, !tbaa !3
  br label %94

94:                                               ; preds = %139, %93
  %95 = load i32, ptr %5, align 4, !tbaa !3
  %96 = load i32, ptr %4, align 4, !tbaa !3
  %97 = icmp slt i32 %95, %96
  br i1 %97, label %98, label %142

98:                                               ; preds = %94
  call void @llvm.lifetime.start.p0(i64 8, ptr %13) #10
  store i64 1, ptr %13, align 8, !tbaa !48
  br label %99

99:                                               ; preds = %135, %98
  %100 = load i64, ptr %13, align 8, !tbaa !48
  %101 = load ptr, ptr %3, align 8, !tbaa !42
  %102 = load i32, ptr %5, align 4, !tbaa !3
  %103 = sext i32 %102 to i64
  %104 = getelementptr inbounds %struct.vtx_data, ptr %101, i64 %103
  %105 = getelementptr inbounds nuw %struct.vtx_data, ptr %104, i32 0, i32 0
  %106 = load i64, ptr %105, align 8, !tbaa !49
  %107 = icmp ult i64 %100, %106
  br i1 %107, label %109, label %108

108:                                              ; preds = %99
  call void @llvm.lifetime.end.p0(i64 8, ptr %13) #10
  br label %138

109:                                              ; preds = %99
  %110 = load ptr, ptr %3, align 8, !tbaa !42
  %111 = load i32, ptr %5, align 4, !tbaa !3
  %112 = sext i32 %111 to i64
  %113 = getelementptr inbounds %struct.vtx_data, ptr %110, i64 %112
  %114 = getelementptr inbounds nuw %struct.vtx_data, ptr %113, i32 0, i32 1
  %115 = load ptr, ptr %114, align 8, !tbaa !50
  %116 = load i64, ptr %13, align 8, !tbaa !48
  %117 = getelementptr inbounds nuw i32, ptr %115, i64 %116
  %118 = load i32, ptr %117, align 4, !tbaa !3
  store i32 %118, ptr %6, align 4, !tbaa !3
  %119 = load ptr, ptr %10, align 8, !tbaa !7
  %120 = load i32, ptr %6, align 4, !tbaa !3
  %121 = sext i32 %120 to i64
  %122 = getelementptr inbounds ptr, ptr %119, i64 %121
  %123 = load ptr, ptr %122, align 8, !tbaa !12
  %124 = load i32, ptr %5, align 4, !tbaa !3
  %125 = sext i32 %124 to i64
  %126 = getelementptr inbounds double, ptr %123, i64 %125
  store double -1.000000e+00, ptr %126, align 8, !tbaa !36
  %127 = load ptr, ptr %10, align 8, !tbaa !7
  %128 = load i32, ptr %5, align 4, !tbaa !3
  %129 = sext i32 %128 to i64
  %130 = getelementptr inbounds ptr, ptr %127, i64 %129
  %131 = load ptr, ptr %130, align 8, !tbaa !12
  %132 = load i32, ptr %6, align 4, !tbaa !3
  %133 = sext i32 %132 to i64
  %134 = getelementptr inbounds double, ptr %131, i64 %133
  store double -1.000000e+00, ptr %134, align 8, !tbaa !36
  br label %135

135:                                              ; preds = %109
  %136 = load i64, ptr %13, align 8, !tbaa !48
  %137 = add i64 %136, 1
  store i64 %137, ptr %13, align 8, !tbaa !48
  br label %99, !llvm.loop !55

138:                                              ; preds = %108
  br label %139

139:                                              ; preds = %138
  %140 = load i32, ptr %5, align 4, !tbaa !3
  %141 = add nsw i32 %140, 1
  store i32 %141, ptr %5, align 4, !tbaa !3
  br label %94, !llvm.loop !56

142:                                              ; preds = %94
  br label %143

143:                                              ; preds = %142, %92
  %144 = load i32, ptr %4, align 4, !tbaa !3
  %145 = load ptr, ptr %10, align 8, !tbaa !7
  %146 = load ptr, ptr %11, align 8, !tbaa !7
  %147 = call i32 @solveCircuit(i32 noundef %144, ptr noundef %145, ptr noundef %146)
  store i32 %147, ptr %7, align 4, !tbaa !3
  %148 = load i32, ptr %7, align 4, !tbaa !3
  %149 = icmp ne i32 %148, 0
  br i1 %149, label %150, label %212

150:                                              ; preds = %143
  call void @llvm.lifetime.start.p0(i64 4, ptr %14) #10
  store i32 0, ptr %8, align 4, !tbaa !3
  store i32 0, ptr %5, align 4, !tbaa !3
  br label %151

151:                                              ; preds = %208, %150
  %152 = load i32, ptr %5, align 4, !tbaa !3
  %153 = load i32, ptr %4, align 4, !tbaa !3
  %154 = icmp slt i32 %152, %153
  br i1 %154, label %155, label %211

155:                                              ; preds = %151
  %156 = load i32, ptr %5, align 4, !tbaa !3
  store i32 %156, ptr %6, align 4, !tbaa !3
  br label %157

157:                                              ; preds = %204, %155
  %158 = load i32, ptr %6, align 4, !tbaa !3
  %159 = load i32, ptr %4, align 4, !tbaa !3
  %160 = icmp slt i32 %158, %159
  br i1 %160, label %161, label %207

161:                                              ; preds = %157
  %162 = load i32, ptr %5, align 4, !tbaa !3
  %163 = load i32, ptr %6, align 4, !tbaa !3
  %164 = icmp eq i32 %162, %163
  br i1 %164, label %165, label %166

165:                                              ; preds = %161
  store float 0.000000e+00, ptr %14, align 4, !tbaa !51
  br label %197

166:                                              ; preds = %161
  %167 = load ptr, ptr %11, align 8, !tbaa !7
  %168 = load i32, ptr %5, align 4, !tbaa !3
  %169 = sext i32 %168 to i64
  %170 = getelementptr inbounds ptr, ptr %167, i64 %169
  %171 = load ptr, ptr %170, align 8, !tbaa !12
  %172 = load i32, ptr %5, align 4, !tbaa !3
  %173 = sext i32 %172 to i64
  %174 = getelementptr inbounds double, ptr %171, i64 %173
  %175 = load double, ptr %174, align 8, !tbaa !36
  %176 = load ptr, ptr %11, align 8, !tbaa !7
  %177 = load i32, ptr %6, align 4, !tbaa !3
  %178 = sext i32 %177 to i64
  %179 = getelementptr inbounds ptr, ptr %176, i64 %178
  %180 = load ptr, ptr %179, align 8, !tbaa !12
  %181 = load i32, ptr %6, align 4, !tbaa !3
  %182 = sext i32 %181 to i64
  %183 = getelementptr inbounds double, ptr %180, i64 %182
  %184 = load double, ptr %183, align 8, !tbaa !36
  %185 = fadd double %175, %184
  %186 = load ptr, ptr %11, align 8, !tbaa !7
  %187 = load i32, ptr %5, align 4, !tbaa !3
  %188 = sext i32 %187 to i64
  %189 = getelementptr inbounds ptr, ptr %186, i64 %188
  %190 = load ptr, ptr %189, align 8, !tbaa !12
  %191 = load i32, ptr %6, align 4, !tbaa !3
  %192 = sext i32 %191 to i64
  %193 = getelementptr inbounds double, ptr %190, i64 %192
  %194 = load double, ptr %193, align 8, !tbaa !36
  %195 = call double @llvm.fmuladd.f64(double -2.000000e+00, double %194, double %185)
  %196 = fptrunc double %195 to float
  store float %196, ptr %14, align 4, !tbaa !51
  br label %197

197:                                              ; preds = %166, %165
  %198 = load float, ptr %14, align 4, !tbaa !51
  %199 = load ptr, ptr %9, align 8, !tbaa !43
  %200 = load i32, ptr %8, align 4, !tbaa !3
  %201 = add nsw i32 %200, 1
  store i32 %201, ptr %8, align 4, !tbaa !3
  %202 = sext i32 %200 to i64
  %203 = getelementptr inbounds float, ptr %199, i64 %202
  store float %198, ptr %203, align 4, !tbaa !51
  br label %204

204:                                              ; preds = %197
  %205 = load i32, ptr %6, align 4, !tbaa !3
  %206 = add nsw i32 %205, 1
  store i32 %206, ptr %6, align 4, !tbaa !3
  br label %157, !llvm.loop !57

207:                                              ; preds = %157
  br label %208

208:                                              ; preds = %207
  %209 = load i32, ptr %5, align 4, !tbaa !3
  %210 = add nsw i32 %209, 1
  store i32 %210, ptr %5, align 4, !tbaa !3
  br label %151, !llvm.loop !58

211:                                              ; preds = %151
  call void @llvm.lifetime.end.p0(i64 4, ptr %14) #10
  br label %214

212:                                              ; preds = %143
  %213 = load ptr, ptr %9, align 8, !tbaa !43
  call void @free(ptr noundef %213) #10
  store ptr null, ptr %9, align 8, !tbaa !43
  br label %214

214:                                              ; preds = %212, %211
  %215 = load ptr, ptr %10, align 8, !tbaa !7
  call void @free_array(ptr noundef %215)
  %216 = load ptr, ptr %11, align 8, !tbaa !7
  call void @free_array(ptr noundef %216)
  %217 = load ptr, ptr %9, align 8, !tbaa !43
  call void @llvm.lifetime.end.p0(i64 8, ptr %11) #10
  call void @llvm.lifetime.end.p0(i64 8, ptr %10) #10
  call void @llvm.lifetime.end.p0(i64 8, ptr %9) #10
  call void @llvm.lifetime.end.p0(i64 4, ptr %8) #10
  call void @llvm.lifetime.end.p0(i64 4, ptr %7) #10
  call void @llvm.lifetime.end.p0(i64 4, ptr %6) #10
  call void @llvm.lifetime.end.p0(i64 4, ptr %5) #10
  ret ptr %217
}