; Function Attrs: nounwind uwtable
define noalias noundef ptr @circuitModel(ptr noundef readonly captures(none) %0, i32 noundef %1) local_unnamed_addr #0 {
  %3 = add nsw i32 %1, 1
  %4 = mul nsw i32 %3, %1
  %5 = sdiv i32 %4, 2
  %6 = sext i32 %5 to i64
  %.off = add i32 %4, 1
  %.not.i = icmp ult i32 %.off, 3
  br i1 %.not.i, label %.thread.i, label %8

.thread.i:                                        ; preds = %2
  %7 = tail call noalias ptr @calloc(i64 noundef 0, i64 noundef 4) #17
  br label %gv_calloc.exit

8:                                                ; preds = %2
  %mul.ov.i = icmp slt i32 %4, -1
  br i1 %mul.ov.i, label %9, label %12

9:                                                ; preds = %8
  %10 = load ptr, ptr @stderr, align 8, !tbaa !37
  %11 = tail call i32 (ptr, ptr, ...) @fprintf(ptr noundef %10, ptr noundef nonnull @.str.14, i64 noundef %6, i64 noundef 4) #18
  tail call fastcc void @graphviz_exit() #19
  unreachable

12:                                               ; preds = %8
  %13 = tail call noalias ptr @calloc(i64 noundef %6, i64 noundef 4) #17
  %14 = icmp eq ptr %13, null
  br i1 %14, label %15, label %gv_calloc.exit

15:                                               ; preds = %12
  %16 = load ptr, ptr @stderr, align 8, !tbaa !37
  %17 = shl nuw nsw i64 %6, 2
  %18 = tail call i32 (ptr, ptr, ...) @fprintf(ptr noundef %16, ptr noundef nonnull @.str.15, i64 noundef %17) #18
  tail call fastcc void @graphviz_exit() #19
  unreachable

gv_calloc.exit:                                   ; preds = %.thread.i, %12
  %19 = phi ptr [ %7, %.thread.i ], [ %13, %12 ]
  %20 = tail call ptr @new_array(i32 noundef %1, i32 noundef %1, double noundef 0.000000e+00) #16
  %21 = tail call ptr @new_array(i32 noundef %1, i32 noundef %1, double noundef 0.000000e+00) #16
  %22 = getelementptr inbounds nuw i8, ptr %0, i64 16
  %23 = load ptr, ptr %22, align 8, !tbaa !39
  %.not = icmp eq ptr %23, null
  %24 = icmp sgt i32 %1, 0
  br i1 %.not, label %.preheader81, label %.preheader84

.preheader84:                                     ; preds = %gv_calloc.exit
  br i1 %24, label %.preheader83.preheader, label %.loopexit82

.preheader83.preheader:                           ; preds = %.preheader84
  %wide.trip.count = zext nneg i32 %1 to i64
  br label %.preheader83

.preheader81:                                     ; preds = %gv_calloc.exit
  br i1 %24, label %.preheader80.preheader, label %.loopexit82

.preheader80.preheader:                           ; preds = %.preheader81
  %wide.trip.count103 = zext nneg i32 %1 to i64
  br label %.preheader80

.preheader83:                                     ; preds = %.preheader83.preheader, %._crit_edge
  %indvars.iv = phi i64 [ 0, %.preheader83.preheader ], [ %indvars.iv.next, %._crit_edge ]
  %25 = getelementptr inbounds nuw %struct.vtx_data, ptr %0, i64 %indvars.iv
  %26 = load i64, ptr %25, align 8, !tbaa !43
  %27 = icmp ugt i64 %26, 1
  br i1 %27, label %.lr.ph, label %._crit_edge

.lr.ph:                                           ; preds = %.preheader83
  %28 = getelementptr inbounds nuw i8, ptr %25, i64 8
  %29 = load ptr, ptr %28, align 8, !tbaa !44
  %30 = getelementptr inbounds nuw i8, ptr %25, i64 16
  %31 = load ptr, ptr %30, align 8, !tbaa !39
  %32 = getelementptr inbounds nuw ptr, ptr %20, i64 %indvars.iv
  %33 = load ptr, ptr %32, align 8, !tbaa !3
  br label %34

._crit_edge:                                      ; preds = %34, %.preheader83
  %indvars.iv.next = add nuw nsw i64 %indvars.iv, 1
  %exitcond98.not = icmp eq i64 %indvars.iv.next, %wide.trip.count
  br i1 %exitcond98.not, label %.loopexit82, label %.preheader83, !llvm.loop !45

34:                                               ; preds = %.lr.ph, %34
  %.07186 = phi i64 [ 1, %.lr.ph ], [ %46, %34 ]
  %35 = getelementptr inbounds nuw i32, ptr %29, i64 %.07186
  %36 = load i32, ptr %35, align 4, !tbaa !46
  %37 = getelementptr inbounds nuw float, ptr %31, i64 %.07186
  %38 = load float, ptr %37, align 4, !tbaa !47
  %39 = fpext float %38 to double
  %40 = fdiv double -1.000000e+00, %39
  %41 = sext i32 %36 to i64
  %42 = getelementptr inbounds ptr, ptr %20, i64 %41
  %43 = load ptr, ptr %42, align 8, !tbaa !3
  %44 = getelementptr inbounds nuw double, ptr %43, i64 %indvars.iv
  store double %40, ptr %44, align 8, !tbaa !31
  %45 = getelementptr inbounds double, ptr %33, i64 %41
  store double %40, ptr %45, align 8, !tbaa !31
  %46 = add nuw i64 %.07186, 1
  %exitcond.not = icmp eq i64 %46, %26
  br i1 %exitcond.not, label %._crit_edge, label %34, !llvm.loop !49

.preheader80:                                     ; preds = %.preheader80.preheader, %._crit_edge90
  %indvars.iv100 = phi i64 [ 0, %.preheader80.preheader ], [ %indvars.iv.next101, %._crit_edge90 ]
  %47 = getelementptr inbounds nuw %struct.vtx_data, ptr %0, i64 %indvars.iv100
  %48 = load i64, ptr %47, align 8, !tbaa !43
  %49 = icmp ugt i64 %48, 1
  br i1 %49, label %.lr.ph89, label %._crit_edge90

.lr.ph89:                                         ; preds = %.preheader80
  %50 = getelementptr inbounds nuw i8, ptr %47, i64 8
  %51 = load ptr, ptr %50, align 8, !tbaa !44
  %52 = getelementptr inbounds nuw ptr, ptr %20, i64 %indvars.iv100
  %53 = load ptr, ptr %52, align 8, !tbaa !3
  br label %54

._crit_edge90:                                    ; preds = %54, %.preheader80
  %indvars.iv.next101 = add nuw nsw i64 %indvars.iv100, 1
  %exitcond104.not = icmp eq i64 %indvars.iv.next101, %wide.trip.count103
  br i1 %exitcond104.not, label %.loopexit82, label %.preheader80, !llvm.loop !50

54:                                               ; preds = %.lr.ph89, %54
  %.07088 = phi i64 [ 1, %.lr.ph89 ], [ %62, %54 ]
  %55 = getelementptr inbounds nuw i32, ptr %51, i64 %.07088
  %56 = load i32, ptr %55, align 4, !tbaa !46
  %57 = sext i32 %56 to i64
  %58 = getelementptr inbounds ptr, ptr %20, i64 %57
  %59 = load ptr, ptr %58, align 8, !tbaa !3
  %60 = getelementptr inbounds nuw double, ptr %59, i64 %indvars.iv100
  store double -1.000000e+00, ptr %60, align 8, !tbaa !31
  %61 = getelementptr inbounds double, ptr %53, i64 %57
  store double -1.000000e+00, ptr %61, align 8, !tbaa !31
  %62 = add nuw i64 %.07088, 1
  %exitcond99.not = icmp eq i64 %62, %48
  br i1 %exitcond99.not, label %._crit_edge90, label %54, !llvm.loop !51

.loopexit82:                                      ; preds = %._crit_edge, %._crit_edge90, %.preheader84, %.preheader81
  %63 = tail call i32 @solveCircuit(i32 noundef %1, ptr noundef %20, ptr noundef %21) #16
  %.not78 = icmp eq i32 %63, 0
  br i1 %.not78, label %86, label %.preheader79

.preheader79:                                     ; preds = %.loopexit82
  %64 = icmp sgt i32 %1, 0
  br i1 %64, label %.preheader.preheader, label %.loopexit

.preheader.preheader:                             ; preds = %.preheader79
  %wide.trip.count118 = zext nneg i32 %1 to i64
  br label %.preheader

.preheader:                                       ; preds = %.preheader.preheader, %85
  %indvars.iv114 = phi i32 [ %1, %.preheader.preheader ], [ %indvars.iv.next115, %85 ]
  %indvars.iv105 = phi i64 [ 0, %.preheader.preheader ], [ %indvars.iv.next106, %85 ]
  %.07594 = phi i32 [ 0, %.preheader.preheader ], [ %67, %85 ]
  %65 = getelementptr inbounds nuw ptr, ptr %21, i64 %indvars.iv105
  %66 = sext i32 %.07594 to i64
  %67 = add i32 %.07594, %indvars.iv114
  br label %68

68:                                               ; preds = %.preheader, %83
  %indvars.iv109 = phi i64 [ %66, %.preheader ], [ %indvars.iv.next110, %83 ]
  %indvars.iv107 = phi i64 [ %indvars.iv105, %.preheader ], [ %indvars.iv.next108, %83 ]
  %69 = icmp eq i64 %indvars.iv105, %indvars.iv107
  br i1 %69, label %83, label %70

70:                                               ; preds = %68
  %71 = load ptr, ptr %65, align 8, !tbaa !3
  %72 = getelementptr inbounds nuw double, ptr %71, i64 %indvars.iv105
  %73 = load double, ptr %72, align 8, !tbaa !31
  %74 = getelementptr inbounds nuw ptr, ptr %21, i64 %indvars.iv107
  %75 = load ptr, ptr %74, align 8, !tbaa !3
  %76 = getelementptr inbounds nuw double, ptr %75, i64 %indvars.iv107
  %77 = load double, ptr %76, align 8, !tbaa !31
  %78 = fadd double %73, %77
  %79 = getelementptr inbounds nuw double, ptr %71, i64 %indvars.iv107
  %80 = load double, ptr %79, align 8, !tbaa !31
  %81 = tail call double @llvm.fmuladd.f64(double %80, double -2.000000e+00, double %78)
  %82 = fptrunc double %81 to float
  br label %83

83:                                               ; preds = %68, %70
  %.0 = phi float [ %82, %70 ], [ 0.000000e+00, %68 ]
  %indvars.iv.next110 = add nsw i64 %indvars.iv109, 1
  %84 = getelementptr inbounds float, ptr %19, i64 %indvars.iv109
  store float %.0, ptr %84, align 4, !tbaa !47
  %indvars.iv.next108 = add nuw nsw i64 %indvars.iv107, 1
  %lftr.wideiv = trunc i64 %indvars.iv.next110 to i32
  %exitcond116.not = icmp eq i32 %67, %lftr.wideiv
  br i1 %exitcond116.not, label %85, label %68, !llvm.loop !52

85:                                               ; preds = %83
  %indvars.iv.next106 = add nuw nsw i64 %indvars.iv105, 1
  %indvars.iv.next115 = add i32 %indvars.iv114, -1
  %exitcond119.not = icmp eq i64 %indvars.iv.next106, %wide.trip.count118
  br i1 %exitcond119.not, label %.loopexit, label %.preheader, !llvm.loop !53

86:                                               ; preds = %.loopexit82
  tail call void @free(ptr noundef %19) #16
  br label %.loopexit

.loopexit:                                        ; preds = %85, %.preheader79, %86
  %.074 = phi ptr [ null, %86 ], [ %19, %.preheader79 ], [ %19, %85 ]
  tail call void @free_array(ptr noundef %20) #16
  tail call void @free_array(ptr noundef %21) #16
  ret ptr %.074
}